; Function Attrs: mustprogress nounwind uwtable
define dso_local void @_ZN4node10HandleWrap6HasRefERKN2v820FunctionCallbackInfoINS1_5ValueEEE(ptr nocapture noundef nonnull readonly align 8 dereferenceable(20) %args) #3 align 2 {
entry:
  %0 = load ptr, ptr %args, align 8
  %1 = load i64, ptr %0, align 8
  %sub.i37.i = add i64 %1, -1
  %2 = inttoptr i64 %sub.i37.i to ptr
  %3 = load i64, ptr %2, align 8
  %sub.i31.i = add i64 %3, 11
  %4 = inttoptr i64 %sub.i31.i to ptr
  %5 = load i16, ptr %4, align 2
  %conv.i.i = zext i16 %5 to i32
  %cmp.i.i = icmp eq i16 %5, 1040
  %sub.i.i = add nsw i32 %conv.i.i, -1057
  %cmp1.i.i = icmp ult i32 %sub.i.i, 1002
  %6 = select i1 %cmp.i.i, i1 true, i1 %cmp1.i.i
  br i1 %6, label %if.then.i.i, label %if.end.i.i

if.then.i.i:                                      ; preds = %entry
  %sub.i43.i = add i64 %1, 31
  %7 = inttoptr i64 %sub.i43.i to ptr
  %8 = load i64, ptr %7, align 8
  %9 = inttoptr i64 %8 to ptr
  br label %_ZN4node10BaseObject12FromJSObjectEN2v85LocalINS1_5ValueEEE.exit

if.end.i.i:                                       ; preds = %entry
  %call7.i.i = tail call noundef ptr @_ZN2v86Object38SlowGetAlignedPointerFromInternalFieldEi(ptr noundef nonnull align 1 dereferenceable(1) %0, i32 noundef 1) #14
  br label %_ZN4node10BaseObject12FromJSObjectEN2v85LocalINS1_5ValueEEE.exit

_ZN4node10BaseObject12FromJSObjectEN2v85LocalINS1_5ValueEEE.exit: ; preds = %if.then.i.i, %if.end.i.i
  %retval.i11.0.i = phi ptr [ %9, %if.then.i.i ], [ %call7.i.i, %if.end.i.i ]
  %cmp = icmp eq ptr %retval.i11.0.i, null
  br i1 %cmp, label %return, label %land.lhs.true.i.i

land.lhs.true.i.i:                                ; preds = %_ZN4node10BaseObject12FromJSObjectEN2v85LocalINS1_5ValueEEE.exit
  %10 = load ptr, ptr %args, align 8
  %arrayidx.i = getelementptr inbounds i8, ptr %10, i64 24
  %vtable.i.i = load ptr, ptr %retval.i11.0.i, align 8
  %vfn.i.i = getelementptr inbounds i8, ptr %vtable.i.i, i64 64
  %11 = load ptr, ptr %vfn.i.i, align 8
  %call.i.i = tail call noundef zeroext i1 %11(ptr noundef nonnull align 8 dereferenceable(56) %retval.i11.0.i) #14
  br i1 %call.i.i, label %_ZN4node10HandleWrap7IsAliveEPKS0_.exit.i, label %_ZN4node10HandleWrap6HasRefEPKS0_.exit.thread

_ZN4node10HandleWrap7IsAliveEPKS0_.exit.i:        ; preds = %land.lhs.true.i.i
  %state_.i.i = getelementptr inbounds i8, ptr %retval.i11.0.i, i64 56
  %12 = load i32, ptr %state_.i.i, align 8
  %cmp1.i.not.i = icmp eq i32 %12, 2
  br i1 %cmp1.i.not.i, label %_ZN4node10HandleWrap6HasRefEPKS0_.exit.thread, label %_ZN4node10HandleWrap6HasRefEPKS0_.exit

_ZN4node10HandleWrap6HasRefEPKS0_.exit:           ; preds = %_ZN4node10HandleWrap7IsAliveEPKS0_.exit.i
  %handle_.i.i = getelementptr inbounds i8, ptr %retval.i11.0.i, i64 80
  %13 = load ptr, ptr %handle_.i.i, align 8
  %call2.i = tail call i32 @uv_has_ref(ptr noundef %13) #14
  %call2.i.fr = freeze i32 %call2.i
  %tobool.i.not = icmp eq i32 %call2.i.fr, 0
  %14 = select i1 %tobool.i.not, i64 640, i64 632
  br label %_ZN4node10HandleWrap6HasRefEPKS0_.exit.thread

_ZN4node10HandleWrap6HasRefEPKS0_.exit.thread:    ; preds = %_ZN4node10HandleWrap6HasRefEPKS0_.exit, %land.lhs.true.i.i, %_ZN4node10HandleWrap7IsAliveEPKS0_.exit.i
  %add.i.i = phi i64 [ 640, %_ZN4node10HandleWrap7IsAliveEPKS0_.exit.i ], [ 640, %land.lhs.true.i.i ], [ %14, %_ZN4node10HandleWrap6HasRefEPKS0_.exit ]
  %arrayidx.i34 = getelementptr inbounds i8, ptr %10, i64 8
  %15 = load ptr, ptr %arrayidx.i34, align 8
  %16 = ptrtoint ptr %15 to i64
  %add1.i.i = add i64 %add.i.i, %16
  %17 = inttoptr i64 %add1.i.i to ptr
  %18 = load i64, ptr %17, align 8
  store i64 %18, ptr %arrayidx.i, align 8
  br label %return

return:                                           ; preds = %_ZN4node10BaseObject12FromJSObjectEN2v85LocalINS1_5ValueEEE.exit, %_ZN4node10HandleWrap6HasRefEPKS0_.exit.thread
  ret void
}